target datalayout = "e-m:e-p270:32:32-p271:32:32-p272:64:64-i64:64-i128:128-f80:128-n8:16:32:64-S128"
target triple = "x86_64-pc-linux-gnu"

%struct.SDL_WindowData = type { ptr, ptr, ptr, ptr, ptr, ptr, ptr, %union.anon, i32, i32, i32, i32, ptr, ptr, ptr, ptr, ptr, ptr, ptr, ptr, ptr, ptr, ptr, ptr, ptr, ptr, %struct.SDL_AtomicInt, ptr, i32, ptr, double, ptr, i32, i32, i32, i32, %struct.anon.3, %struct.anon.4, %struct.anon.5, %struct.anon.6, %struct.anon.7, %struct.anon.8, %struct.anon.9, i32, i32, i32, i64, i32, i32, i8, i8, i8, i8, i8, i8, i8, i8, i8, i8, i8, i8, i8, i8, i32, %struct.wl_list }
%union.anon = type { %struct.anon }
%struct.anon = type { ptr, %union.anon.0, i8 }
%union.anon.0 = type { %struct.anon.2 }
%struct.anon.2 = type { ptr, ptr }
%struct.SDL_AtomicInt = type { i32 }
%struct.anon.3 = type { double, double }
%struct.anon.4 = type { i32, i32, i32, i32 }
%struct.anon.5 = type { i32, i32, i32, i32 }
%struct.anon.6 = type { i32, i32 }
%struct.anon.7 = type { i32, i32 }
%struct.anon.8 = type { i32, i32 }
%struct.anon.9 = type { i32, i32, i8 }
%struct.wl_list = type { ptr, ptr }
%struct.SDL_Window = type { i32, ptr, ptr, i32, i32, i32, i32, i32, i32, i32, i32, float, float, i32, i32, i64, i64, float, i8, i8, i32, i32, %struct.SDL_Rect, %struct.SDL_Rect, %struct.SDL_Rect, i8, i8, i8, %struct.SDL_DisplayMode, %struct.SDL_DisplayMode, %struct.SDL_HDROutputProperties, float, ptr, i8, i8, i8, i8, i8, i8, i8, i8, i8, i32, i32, i32, i32, %struct.SDL_Rect, i32, i8, %struct.SDL_Rect, i32, %struct.SDL_Rect, ptr, ptr, i32, float, i32, i32, ptr, ptr, ptr, ptr, ptr, ptr, ptr, ptr, ptr }
%struct.SDL_DisplayMode = type { i32, i32, i32, i32, float, float, i32, i32, ptr }
%struct.SDL_HDROutputProperties = type { float, float }
%struct.SDL_Rect = type { i32, i32, i32, i32 }

; Function Attrs: nounwind uwtable
define hidden ptr @Wayland_GetWindowICCProfile(ptr noundef %0, ptr noundef %1, ptr noundef %2) #0 {
  %4 = alloca ptr, align 8
  %5 = alloca ptr, align 8
  %6 = alloca ptr, align 8
  %7 = alloca ptr, align 8
  %8 = alloca ptr, align 8
  %9 = alloca ptr, align 8
  store ptr %0, ptr %4, align 8
  store ptr %1, ptr %5, align 8
  store ptr %2, ptr %6, align 8
  call void @llvm.lifetime.start.p0(i64 8, ptr %7) #10
  %10 = load ptr, ptr %5, align 8
  %11 = getelementptr inbounds nuw %struct.SDL_Window, ptr %10, i32 0, i32 59
  %12 = load ptr, ptr %11, align 8
  store ptr %12, ptr %7, align 8
  call void @llvm.lifetime.start.p0(i64 8, ptr %8) #10
  store ptr null, ptr %8, align 8
  %13 = load ptr, ptr %7, align 8
  %14 = getelementptr inbounds nuw %struct.SDL_WindowData, ptr %13, i32 0, i32 48
  %15 = load i32, ptr %14, align 4
  %16 = icmp ugt i32 %15, 0
  br i1 %16, label %17, label %54

17:                                               ; preds = %3
  call void @llvm.lifetime.start.p0(i64 8, ptr %9) #10
  %18 = load ptr, ptr %7, align 8
  %19 = getelementptr inbounds nuw %struct.SDL_WindowData, ptr %18, i32 0, i32 48
  %20 = load i32, ptr %19, align 4
  %21 = zext i32 %20 to i64
  %22 = load ptr, ptr %7, align 8
  %23 = getelementptr inbounds nuw %struct.SDL_WindowData, ptr %22, i32 0, i32 47
  %24 = load i32, ptr %23, align 8
  %25 = call ptr @mmap(ptr noundef null, i64 noundef %21, i32 noundef 1, i32 noundef 2, i32 noundef %24, i64 noundef 0) #10
  store ptr %25, ptr %9, align 8
  %26 = load ptr, ptr %9, align 8
  %27 = icmp ne ptr %26, inttoptr (i64 -1 to ptr)
  br i1 %27, label %28, label %53

28:                                               ; preds = %17
  %29 = load ptr, ptr %7, align 8
  %30 = getelementptr inbounds nuw %struct.SDL_WindowData, ptr %29, i32 0, i32 48
  %31 = load i32, ptr %30, align 4
  %32 = zext i32 %31 to i64
  %33 = call noalias ptr @SDL_malloc_REAL(i64 noundef %32)
  store ptr %33, ptr %8, align 8
  %34 = load ptr, ptr %8, align 8
  %35 = icmp ne ptr %34, null
  br i1 %35, label %36, label %46

36:                                               ; preds = %28
  %37 = load ptr, ptr %7, align 8
  %38 = getelementptr inbounds nuw %struct.SDL_WindowData, ptr %37, i32 0, i32 48
  %39 = load i32, ptr %38, align 4
  %40 = zext i32 %39 to i64
  %41 = load ptr, ptr %6, align 8
  store i64 %40, ptr %41, align 8
  %42 = load ptr, ptr %8, align 8
  %43 = load ptr, ptr %9, align 8
  %44 = load ptr, ptr %6, align 8
  %45 = load i64, ptr %44, align 8
  call void @llvm.memcpy.p0.p0.i64(ptr align 1 %42, ptr align 1 %43, i64 %45, i1 false)
  br label %46

46:                                               ; preds = %36, %28
  %47 = load ptr, ptr %9, align 8
  %48 = load ptr, ptr %7, align 8
  %49 = getelementptr inbounds nuw %struct.SDL_WindowData, ptr %48, i32 0, i32 48
  %50 = load i32, ptr %49, align 4
  %51 = zext i32 %50 to i64
  %52 = call i32 @munmap(ptr noundef %47, i64 noundef %51) #10
  br label %53

53:                                               ; preds = %46, %17
  call void @llvm.lifetime.end.p0(i64 8, ptr %9) #10
  br label %54

54:                                               ; preds = %53, %3
  %55 = load ptr, ptr %8, align 8
  call void @llvm.lifetime.end.p0(i64 8, ptr %8) #10
  call void @llvm.lifetime.end.p0(i64 8, ptr %7) #10
  ret ptr %55
}