; Function Attrs: nounwind uwtable
define hidden noalias ptr @Wayland_GetWindowICCProfile(ptr noundef readnone captures(none) %0, ptr noundef readonly captures(none) %1, ptr noundef writeonly captures(none) %2) local_unnamed_addr #0 {
  %4 = getelementptr inbounds nuw i8, ptr %1, i64 392
  %5 = load ptr, ptr %4, align 8
  %6 = getelementptr inbounds nuw i8, ptr %5, i64 388
  %7 = load i32, ptr %6, align 4
  %.not = icmp eq i32 %7, 0
  br i1 %.not, label %24, label %8

8:                                                ; preds = %3
  %9 = zext i32 %7 to i64
  %10 = getelementptr inbounds nuw i8, ptr %5, i64 384
  %11 = load i32, ptr %10, align 8
  %12 = tail call ptr @mmap(ptr noundef null, i64 noundef %9, i32 noundef 1, i32 noundef 2, i32 noundef %11, i64 noundef 0) #15
  %.not18 = icmp eq ptr %12, inttoptr (i64 -1 to ptr)
  br i1 %.not18, label %24, label %13

13:                                               ; preds = %8
  %14 = load i32, ptr %6, align 4
  %15 = zext i32 %14 to i64
  %16 = tail call noalias ptr @SDL_malloc_REAL(i64 noundef %15) #15
  %.not19 = icmp eq ptr %16, null
  br i1 %.not19, label %20, label %17

17:                                               ; preds = %13
  %18 = load i32, ptr %6, align 4
  %19 = zext i32 %18 to i64
  store i64 %19, ptr %2, align 8
  tail call void @llvm.memcpy.p0.p0.i64(ptr nonnull align 1 %16, ptr align 1 %12, i64 %19, i1 false)
  br label %20

20:                                               ; preds = %17, %13
  %21 = load i32, ptr %6, align 4
  %22 = zext i32 %21 to i64
  %23 = tail call i32 @munmap(ptr noundef %12, i64 noundef %22) #15
  br label %24

24:                                               ; preds = %8, %20, %3
  %.0 = phi ptr [ null, %3 ], [ %16, %20 ], [ null, %8 ]
  ret ptr %.0
}